target datalayout = "e-m:e-p270:32:32-p271:32:32-p272:64:64-i64:64-i128:128-f80:128-n8:16:32:64-S128"
target triple = "x86_64-pc-linux-gnu"

%"class.i18n::phonenumbers::RegexBasedMatcher" = type { %"class.i18n::phonenumbers::MatcherApi", %"class.boost::scoped_ptr", %"class.boost::scoped_ptr.1" }
%"class.i18n::phonenumbers::MatcherApi" = type { ptr }
%"class.boost::scoped_ptr" = type { ptr }
%"class.boost::scoped_ptr.1" = type { ptr }
%"class.boost::scoped_ptr.3" = type { ptr }

; Function Attrs: inlinehint mustprogress nounwind uwtable
define linkonce_odr dso_local void @_ZN5boost14checked_deleteIN4i18n12phonenumbers11RegExpInputEEEvPT_(ptr noundef %0) #7 comdat {
  %2 = alloca ptr, align 8
  store ptr %0, ptr %2, align 8, !tbaa !39
  %3 = load ptr, ptr %2, align 8, !tbaa !39
  %4 = icmp eq ptr %3, null
  br i1 %4, label %9, label %5

5:                                                ; preds = %1
  %6 = load ptr, ptr %3, align 8, !tbaa !11
  %7 = getelementptr inbounds ptr, ptr %6, i64 1
  %8 = load ptr, ptr %7, align 8
  call void %8(ptr noundef nonnull align 8 dereferenceable(8) %3) #3
  br label %9

9:                                                ; preds = %5, %1
  ret void
}

; Function Attrs: mustprogress nounwind uwtable
define linkonce_odr dso_local void @_ZN5boost10scoped_ptrIN4i18n12phonenumbers11RegExpInputEED2Ev(ptr noundef nonnull align 8 dereferenceable(8) %0) unnamed_addr #5 comdat align 2 {
  %2 = alloca ptr, align 8
  store ptr %0, ptr %2, align 8, !tbaa !37
  %3 = load ptr, ptr %2, align 8
  %4 = getelementptr inbounds nuw %"class.boost::scoped_ptr.3", ptr %3, i32 0, i32 0
  %5 = load ptr, ptr %4, align 8, !tbaa !41
  call void @_ZN5boost14checked_deleteIN4i18n12phonenumbers11RegExpInputEEEvPT_(ptr noundef %5) #3
  ret void
}

; Function Attrs: inlinehint mustprogress uwtable
define linkonce_odr dso_local noundef zeroext i1 @_ZNK4i18n12phonenumbers6RegExp7ConsumeEPNS0_11RegExpInputE(ptr noundef nonnull align 8 dereferenceable(8) %0, ptr noundef %1) #11 comdat align 2 {
  %3 = alloca ptr, align 8
  %4 = alloca ptr, align 8
  store ptr %0, ptr %3, align 8, !tbaa !35
  store ptr %1, ptr %4, align 8, !tbaa !39
  %5 = load ptr, ptr %3, align 8
  %6 = load ptr, ptr %4, align 8, !tbaa !39
  %7 = load ptr, ptr %5, align 8, !tbaa !11
  %8 = getelementptr inbounds ptr, ptr %7, i64 2
  %9 = load ptr, ptr %8, align 8
  %10 = call noundef zeroext i1 %9(ptr noundef nonnull align 8 dereferenceable(8) %5, ptr noundef %6, i1 noundef zeroext true, ptr noundef null, ptr noundef null, ptr noundef null, ptr noundef null, ptr noundef null, ptr noundef null)
  ret i1 %10
}

; Function Attrs: mustprogress nounwind uwtable
define linkonce_odr dso_local noundef ptr @_ZNK5boost10scoped_ptrIN4i18n12phonenumbers11RegExpInputEE3getEv(ptr noundef nonnull align 8 dereferenceable(8) %0) #5 comdat align 2 {
  %2 = alloca ptr, align 8
  store ptr %0, ptr %2, align 8, !tbaa !37
  %3 = load ptr, ptr %2, align 8
  %4 = getelementptr inbounds nuw %"class.boost::scoped_ptr.3", ptr %3, i32 0, i32 0
  %5 = load ptr, ptr %4, align 8, !tbaa !41
  ret ptr %5
}

; Function Attrs: mustprogress nounwind uwtable
define linkonce_odr dso_local void @_ZN5boost10scoped_ptrIN4i18n12phonenumbers11RegExpInputEEC2EPS3_(ptr noundef nonnull align 8 dereferenceable(8) %0, ptr noundef %1) unnamed_addr #5 comdat align 2 {
  %3 = alloca ptr, align 8
  %4 = alloca ptr, align 8
  store ptr %0, ptr %3, align 8, !tbaa !37
  store ptr %1, ptr %4, align 8, !tbaa !39
  %5 = load ptr, ptr %3, align 8
  %6 = getelementptr inbounds nuw %"class.boost::scoped_ptr.3", ptr %5, i32 0, i32 0
  %7 = load ptr, ptr %4, align 8, !tbaa !39
  store ptr %7, ptr %6, align 8, !tbaa !41
  ret void
}

; Function Attrs: mustprogress nounwind uwtable
define linkonce_odr dso_local noundef ptr @_ZNK5boost10scoped_ptrIKN4i18n12phonenumbers21AbstractRegExpFactoryEEptEv(ptr noundef nonnull align 8 dereferenceable(8) %0) #5 comdat align 2 {
  %2 = alloca ptr, align 8
  store ptr %0, ptr %2, align 8, !tbaa !17
  %3 = load ptr, ptr %2, align 8
  %4 = getelementptr inbounds nuw %"class.boost::scoped_ptr", ptr %3, i32 0, i32 0
  %5 = load ptr, ptr %4, align 8, !tbaa !21
  ret ptr %5
}

; Function Attrs: inlinehint mustprogress uwtable
define linkonce_odr dso_local noundef zeroext i1 @_ZNK4i18n12phonenumbers6RegExp9FullMatchERKNSt7__cxx1112basic_stringIcSt11char_traitsIcESaIcEEE(ptr noundef nonnull align 8 dereferenceable(8) %0, ptr noundef nonnull align 8 dereferenceable(32) %1) #11 comdat align 2 {
  %3 = alloca ptr, align 8
  %4 = alloca ptr, align 8
  store ptr %0, ptr %3, align 8, !tbaa !35
  store ptr %1, ptr %4, align 8, !tbaa !4
  %5 = load ptr, ptr %3, align 8
  %6 = load ptr, ptr %4, align 8, !tbaa !4
  %7 = load ptr, ptr %5, align 8, !tbaa !11
  %8 = getelementptr inbounds ptr, ptr %7, i64 3
  %9 = load ptr, ptr %8, align 8
  %10 = call noundef zeroext i1 %9(ptr noundef nonnull align 8 dereferenceable(8) %5, ptr noundef nonnull align 8 dereferenceable(32) %6, i1 noundef zeroext true, ptr noundef null)
  ret i1 %10
}

; Function Attrs: mustprogress nounwind uwtable
define linkonce_odr dso_local noundef ptr @_ZNK5boost10scoped_ptrIN4i18n12phonenumbers11RegExpCacheEEptEv(ptr noundef nonnull align 8 dereferenceable(8) %0) #5 comdat align 2 {
  %2 = alloca ptr, align 8
  store ptr %0, ptr %2, align 8, !tbaa !23
  %3 = load ptr, ptr %2, align 8
  %4 = getelementptr inbounds nuw %"class.boost::scoped_ptr.1", ptr %3, i32 0, i32 0
  %5 = load ptr, ptr %4, align 8, !tbaa !27
  ret ptr %5
}

; Function Attrs: mustprogress uwtable
define dso_local noundef zeroext i1 @_ZNK4i18n12phonenumbers17RegexBasedMatcher5MatchERKNSt7__cxx1112basic_stringIcSt11char_traitsIcESaIcEEES9_b(ptr noundef nonnull align 8 dereferenceable(24) %0, ptr noundef nonnull align 8 dereferenceable(32) %1, ptr noundef nonnull align 8 dereferenceable(32) %2, i1 noundef zeroext %3) #6 align 2 personality ptr @__gxx_personality_v0 {
  %5 = alloca i1, align 1
  %6 = alloca ptr, align 8
  %7 = alloca ptr, align 8
  %8 = alloca ptr, align 8
  %9 = alloca i8, align 1
  %10 = alloca ptr, align 8
  %11 = alloca i32, align 4
  %12 = alloca %"class.boost::scoped_ptr.3", align 8
  %13 = alloca ptr, align 8
  %14 = alloca i32, align 4
  store ptr %0, ptr %6, align 8, !tbaa !9
  store ptr %1, ptr %7, align 8, !tbaa !4
  store ptr %2, ptr %8, align 8, !tbaa !4
  %15 = zext i1 %3 to i8
  store i8 %15, ptr %9, align 1, !tbaa !31
  %16 = load ptr, ptr %6, align 8
  call void @llvm.lifetime.start.p0(i64 8, ptr %10) #3
  %17 = getelementptr inbounds nuw %"class.i18n::phonenumbers::RegexBasedMatcher", ptr %16, i32 0, i32 2
  %18 = call noundef ptr @_ZNK5boost10scoped_ptrIN4i18n12phonenumbers11RegExpCacheEEptEv(ptr noundef nonnull align 8 dereferenceable(8) %17) #3
  %19 = load ptr, ptr %8, align 8, !tbaa !4
  %20 = call noundef nonnull align 8 dereferenceable(8) ptr @_ZN4i18n12phonenumbers11RegExpCache9GetRegExpERKNSt7__cxx1112basic_stringIcSt11char_traitsIcESaIcEEE(ptr noundef nonnull align 8 dereferenceable(56) %18, ptr noundef nonnull align 8 dereferenceable(32) %19)
  store ptr %20, ptr %10, align 8, !tbaa !35
  %21 = load ptr, ptr %10, align 8, !tbaa !35
  %22 = load ptr, ptr %7, align 8, !tbaa !4
  %23 = call noundef zeroext i1 @_ZNK4i18n12phonenumbers6RegExp9FullMatchERKNSt7__cxx1112basic_stringIcSt11char_traitsIcESaIcEEE(ptr noundef nonnull align 8 dereferenceable(8) %21, ptr noundef nonnull align 8 dereferenceable(32) %22)
  br i1 %23, label %24, label %25

24:                                               ; preds = %4
  store i1 true, ptr %5, align 1
  store i32 1, ptr %11, align 4
  br label %47

25:                                               ; preds = %4
  call void @llvm.lifetime.start.p0(i64 8, ptr %12) #3
  %26 = getelementptr inbounds nuw %"class.i18n::phonenumbers::RegexBasedMatcher", ptr %16, i32 0, i32 1
  %27 = call noundef ptr @_ZNK5boost10scoped_ptrIKN4i18n12phonenumbers21AbstractRegExpFactoryEEptEv(ptr noundef nonnull align 8 dereferenceable(8) %26) #3
  %28 = load ptr, ptr %7, align 8, !tbaa !4
  %29 = load ptr, ptr %27, align 8, !tbaa !11
  %30 = getelementptr inbounds ptr, ptr %29, i64 2
  %31 = load ptr, ptr %30, align 8
  %32 = call noundef ptr %31(ptr noundef nonnull align 8 dereferenceable(8) %27, ptr noundef nonnull align 8 dereferenceable(32) %28)
  call void @_ZN5boost10scoped_ptrIN4i18n12phonenumbers11RegExpInputEEC2EPS3_(ptr noundef nonnull align 8 dereferenceable(8) %12, ptr noundef %32) #3
  %33 = load ptr, ptr %10, align 8, !tbaa !35
  %34 = call noundef ptr @_ZNK5boost10scoped_ptrIN4i18n12phonenumbers11RegExpInputEE3getEv(ptr noundef nonnull align 8 dereferenceable(8) %12) #3
  %35 = invoke noundef zeroext i1 @_ZNK4i18n12phonenumbers6RegExp7ConsumeEPNS0_11RegExpInputE(ptr noundef nonnull align 8 dereferenceable(8) %33, ptr noundef %34)
          to label %36 unwind label %43

36:                                               ; preds = %25
  br i1 %35, label %37, label %40

37:                                               ; preds = %36
  %38 = load i8, ptr %9, align 1, !tbaa !31, !range !33, !noundef !34
  %39 = trunc i8 %38 to i1
  br label %41

40:                                               ; preds = %36
  br label %41

41:                                               ; preds = %40, %37
  %42 = phi i1 [ %39, %37 ], [ false, %40 ]
  store i1 %42, ptr %5, align 1
  store i32 1, ptr %11, align 4
  call void @_ZN5boost10scoped_ptrIN4i18n12phonenumbers11RegExpInputEED2Ev(ptr noundef nonnull align 8 dereferenceable(8) %12) #3
  call void @llvm.lifetime.end.p0(i64 8, ptr %12) #3
  br label %47

43:                                               ; preds = %25
  %44 = landingpad { ptr, i32 }
          cleanup
  %45 = extractvalue { ptr, i32 } %44, 0
  store ptr %45, ptr %13, align 8
  %46 = extractvalue { ptr, i32 } %44, 1
  store i32 %46, ptr %14, align 4
  call void @_ZN5boost10scoped_ptrIN4i18n12phonenumbers11RegExpInputEED2Ev(ptr noundef nonnull align 8 dereferenceable(8) %12) #3
  call void @llvm.lifetime.end.p0(i64 8, ptr %12) #3
  call void @llvm.lifetime.end.p0(i64 8, ptr %10) #3
  br label %49

47:                                               ; preds = %41, %24
  call void @llvm.lifetime.end.p0(i64 8, ptr %10) #3
  %48 = load i1, ptr %5, align 1
  ret i1 %48

49:                                               ; preds = %43
  %50 = load ptr, ptr %13, align 8
  %51 = load i32, ptr %14, align 4
  %52 = insertvalue { ptr, i32 } poison, ptr %50, 0
  %53 = insertvalue { ptr, i32 } %52, i32 %51, 1
  resume { ptr, i32 } %53
}